; Function Attrs: mustprogress nounwind uwtable
define hidden noundef range(i64 0, 17592186044416) i64 @_ZNK8PSOldGen19num_iterable_blocksEv(ptr nocapture noundef nonnull readonly align 8 dereferenceable(128) %0) local_unnamed_addr #0 align 2 {
  %2 = getelementptr inbounds i8, ptr %0, i64 88
  %3 = load ptr, ptr %2, align 8
  %4 = load ptr, ptr %3, align 8
  %5 = getelementptr inbounds i8, ptr %4, i64 80
  %6 = load ptr, ptr %5, align 8
  %7 = tail call noundef i64 %6(ptr noundef nonnull align 8 dereferenceable(56) %3) #7
  %8 = shl i64 %7, 3
  %9 = add i64 %8, 1048575
  %10 = lshr i64 %9, 20
  ret i64 %10
}